target datalayout = "e-m:e-p270:32:32-p271:32:32-p272:64:64-i64:64-i128:128-f80:128-n8:16:32:64-S128"
target triple = "x86_64-pc-linux-gnu"

%struct._generic_N_Vector = type { ptr, ptr, ptr }
%struct._N_VectorContent_Serial = type { i64, i32, ptr }

; Function Attrs: nounwind uwtable
define internal i32 @ans(double noundef %0, ptr noundef %1, ptr noundef %2) #0 {
  %4 = alloca double, align 8
  %5 = alloca ptr, align 8
  %6 = alloca ptr, align 8
  %7 = alloca double, align 8
  %8 = alloca double, align 8
  %9 = alloca double, align 8
  %10 = alloca double, align 8
  store double %0, ptr %4, align 8, !tbaa !4
  store ptr %1, ptr %5, align 8, !tbaa !12
  store ptr %2, ptr %6, align 8, !tbaa !15
  call void @llvm.lifetime.start.p0(i64 8, ptr %7) #5
  store double 5.000000e+01, ptr %7, align 8, !tbaa !4
  call void @llvm.lifetime.start.p0(i64 8, ptr %8) #5
  store double 0x4000281FEF9F5F80, ptr %8, align 8, !tbaa !4
  call void @llvm.lifetime.start.p0(i64 8, ptr %9) #5
  store double 0x3F940FF7CFAFC021, ptr %9, align 8, !tbaa !4
  call void @llvm.lifetime.start.p0(i64 8, ptr %10) #5
  store double 0x3F94E1996FAC799A, ptr %10, align 8, !tbaa !4
  %11 = load double, ptr %7, align 8, !tbaa !4
  %12 = load double, ptr %4, align 8, !tbaa !4
  %13 = fmul double %11, %12
  %14 = call double @cos(double noundef %13) #5, !tbaa !10
  %15 = load ptr, ptr %5, align 8, !tbaa !12
  %16 = getelementptr inbounds nuw %struct._generic_N_Vector, ptr %15, i32 0, i32 0
  %17 = load ptr, ptr %16, align 8, !tbaa !20
  %18 = getelementptr inbounds nuw %struct._N_VectorContent_Serial, ptr %17, i32 0, i32 2
  %19 = load ptr, ptr %18, align 8, !tbaa !23
  %20 = getelementptr inbounds double, ptr %19, i64 0
  store double %14, ptr %20, align 8, !tbaa !4
  %21 = load double, ptr %7, align 8, !tbaa !4
  %22 = load double, ptr %4, align 8, !tbaa !4
  %23 = fmul double %21, %22
  %24 = call double @sin(double noundef %23) #5, !tbaa !10
  %25 = load ptr, ptr %5, align 8, !tbaa !12
  %26 = getelementptr inbounds nuw %struct._generic_N_Vector, ptr %25, i32 0, i32 0
  %27 = load ptr, ptr %26, align 8, !tbaa !20
  %28 = getelementptr inbounds nuw %struct._N_VectorContent_Serial, ptr %27, i32 0, i32 2
  %29 = load ptr, ptr %28, align 8, !tbaa !23
  %30 = getelementptr inbounds double, ptr %29, i64 1
  store double %24, ptr %30, align 8, !tbaa !4
  %31 = load double, ptr %8, align 8, !tbaa !4
  %32 = load double, ptr %4, align 8, !tbaa !4
  %33 = fneg double %32
  %34 = call double @exp(double noundef %33) #5, !tbaa !10
  %35 = load double, ptr %9, align 8, !tbaa !4
  %36 = load double, ptr %7, align 8, !tbaa !4
  %37 = load double, ptr %4, align 8, !tbaa !4
  %38 = fmul double %36, %37
  %39 = call double @cos(double noundef %38) #5, !tbaa !10
  %40 = fmul double %35, %39
  %41 = fneg double %40
  %42 = call double @llvm.fmuladd.f64(double %31, double %34, double %41)
  %43 = load double, ptr %10, align 8, !tbaa !4
  %44 = load double, ptr %7, align 8, !tbaa !4
  %45 = load double, ptr %4, align 8, !tbaa !4
  %46 = fmul double %44, %45
  %47 = call double @sin(double noundef %46) #5, !tbaa !10
  %48 = call double @llvm.fmuladd.f64(double %43, double %47, double %42)
  %49 = load ptr, ptr %5, align 8, !tbaa !12
  %50 = getelementptr inbounds nuw %struct._generic_N_Vector, ptr %49, i32 0, i32 0
  %51 = load ptr, ptr %50, align 8, !tbaa !20
  %52 = getelementptr inbounds nuw %struct._N_VectorContent_Serial, ptr %51, i32 0, i32 2
  %53 = load ptr, ptr %52, align 8, !tbaa !23
  %54 = getelementptr inbounds double, ptr %53, i64 2
  store double %48, ptr %54, align 8, !tbaa !4
  call void @llvm.lifetime.end.p0(i64 8, ptr %10) #5
  call void @llvm.lifetime.end.p0(i64 8, ptr %9) #5
  call void @llvm.lifetime.end.p0(i64 8, ptr %8) #5
  call void @llvm.lifetime.end.p0(i64 8, ptr %7) #5
  ret i32 0
}