; Function Attrs: mustprogress nofree nounwind willreturn memory(write) uwtable
define internal fastcc void @ans(double noundef %0, ptr writeonly captures(none) initializes((0, 24)) %.0.val.16.val) unnamed_addr #5 {
  %2 = fmul double %0, 5.000000e+01
  %3 = tail call double @cos(double noundef %2) #10, !tbaa !25
  store double %3, ptr %.0.val.16.val, align 8, !tbaa !9
  %4 = tail call double @sin(double noundef %2) #10, !tbaa !25
  %5 = getelementptr inbounds nuw i8, ptr %.0.val.16.val, i64 8
  store double %4, ptr %5, align 8, !tbaa !9
  %6 = fneg double %0
  %7 = tail call double @exp(double noundef %6) #10, !tbaa !25
  %8 = tail call double @cos(double noundef %2) #10, !tbaa !25
  %9 = fmul double %8, 0xBF940FF7CFAFC021
  %10 = tail call double @llvm.fmuladd.f64(double %7, double 0x4000281FEF9F5F80, double %9)
  %11 = tail call double @sin(double noundef %2) #10, !tbaa !25
  %12 = tail call double @llvm.fmuladd.f64(double %11, double 0x3F94E1996FAC799A, double %10)
  %13 = getelementptr inbounds nuw i8, ptr %.0.val.16.val, i64 16
  store double %12, ptr %13, align 8, !tbaa !9
  ret void
}